; Function Attrs: mustprogress nounwind uwtable
define hidden void @_ZN5JVMCI18initialize_globalsEv() local_unnamed_addr #0 align 2 {
  %1 = load i8, ptr @LogEvents, align 1
  %2 = trunc i8 %1 to i1
  %3 = load i64, ptr @JVMCIEventLogLevel, align 8
  %4 = icmp sgt i64 %3, 0
  %or.cond = select i1 %2, i1 %4, i1 false
  br i1 %or.cond, label %5, label %62

5:                                                ; preds = %0
  %6 = tail call noundef ptr @_Z12AllocateHeapm8MEMFLAGSN17AllocFailStrategy13AllocFailEnumE(i64 noundef 160, i8 noundef zeroext 9, i32 noundef 0) #13
  %7 = load i32, ptr @LogEventsBufferEntries, align 4
  tail call void @_ZN8EventLogC2Ev(ptr noundef nonnull align 8 dereferenceable(16) %6) #13
  store ptr getelementptr inbounds inrange(-16, 24) (i8, ptr @_ZTV12EventLogBaseI22FormatStringLogMessageILm256EEE, i64 16), ptr %6, align 8
  %8 = getelementptr inbounds i8, ptr %6, i64 16
  tail call void @_ZN5MutexC2ENS_4RankEPKcb(ptr noundef nonnull align 8 dereferenceable(104) %8, i32 noundef 0, ptr noundef nonnull @.str.9, i1 noundef zeroext true) #13
  %9 = getelementptr inbounds i8, ptr %6, i64 120
  store ptr @.str.9, ptr %9, align 8
  %10 = getelementptr inbounds i8, ptr %6, i64 128
  store ptr @.str.10, ptr %10, align 8
  %11 = getelementptr inbounds i8, ptr %6, i64 136
  store i32 %7, ptr %11, align 8
  %12 = getelementptr inbounds i8, ptr %6, i64 140
  store i32 0, ptr %12, align 4
  %13 = getelementptr inbounds i8, ptr %6, i64 144
  store i32 0, ptr %13, align 8
  %14 = sext i32 %7 to i64
  %15 = tail call { i64, i1 } @llvm.umul.with.overflow.i64(i64 %14, i64 280)
  %16 = extractvalue { i64, i1 } %15, 1
  %17 = extractvalue { i64, i1 } %15, 0
  %18 = select i1 %16, i64 -1, i64 %17
  %19 = tail call noundef ptr @_Z12AllocateHeapm8MEMFLAGSN17AllocFailStrategy13AllocFailEnumE(i64 noundef %18, i8 noundef zeroext 9, i32 noundef 0) #13
  %20 = icmp eq i32 %7, 0
  br i1 %20, label %_ZN20FormatStringEventLogILm256EEC2EPKcS2_i.exit, label %21

21:                                               ; preds = %5
  %22 = getelementptr inbounds %"class.EventLogBase<FormatStringLogMessage<256>>::EventRecord", ptr %19, i64 %14
  br label %23

23:                                               ; preds = %23, %21
  %24 = phi ptr [ %19, %21 ], [ %27, %23 ]
  %25 = getelementptr inbounds i8, ptr %24, i64 16
  %26 = getelementptr inbounds i8, ptr %24, i64 24
  store ptr %26, ptr %25, align 8
  store i8 0, ptr %26, align 1
  %27 = getelementptr inbounds i8, ptr %24, i64 280
  %28 = icmp eq ptr %27, %22
  br i1 %28, label %_ZN20FormatStringEventLogILm256EEC2EPKcS2_i.exit, label %23

_ZN20FormatStringEventLogILm256EEC2EPKcS2_i.exit: ; preds = %23, %5
  %29 = getelementptr inbounds i8, ptr %6, i64 152
  store ptr %19, ptr %29, align 8
  store ptr getelementptr inbounds inrange(-16, 24) (i8, ptr @_ZTV20FormatStringEventLogILm256EE, i64 16), ptr %6, align 8
  store ptr %6, ptr @_ZN5JVMCI7_eventsE, align 8
  %30 = load i64, ptr @JVMCIEventLogLevel, align 8
  %31 = icmp sgt i64 %30, 1
  br i1 %31, label %32, label %62

32:                                               ; preds = %_ZN20FormatStringEventLogILm256EEC2EPKcS2_i.exit
  %33 = load i32, ptr @LogEventsBufferEntries, align 4
  %34 = add nsw i64 %30, -2
  %umin = tail call i64 @llvm.umin.i64(i64 %34, i64 2)
  %35 = add nuw nsw i64 %umin, 1
  br label %36

36:                                               ; preds = %32, %36
  %indvars.iv = phi i64 [ 1, %32 ], [ %indvars.iv.next, %36 ]
  %.01820 = phi i32 [ %33, %32 ], [ %37, %36 ]
  %37 = mul nsw i32 %.01820, 10
  %indvars.iv.next = add nuw nsw i64 %indvars.iv, 1
  %exitcond.not = icmp eq i64 %indvars.iv, %35
  br i1 %exitcond.not, label %38, label %36, !llvm.loop !6

38:                                               ; preds = %36
  %39 = tail call noundef ptr @_Z12AllocateHeapm8MEMFLAGSN17AllocFailStrategy13AllocFailEnumE(i64 noundef 160, i8 noundef zeroext 9, i32 noundef 0) #13
  tail call void @_ZN8EventLogC2Ev(ptr noundef nonnull align 8 dereferenceable(16) %39) #13
  store ptr getelementptr inbounds inrange(-16, 24) (i8, ptr @_ZTV12EventLogBaseI22FormatStringLogMessageILm256EEE, i64 16), ptr %39, align 8
  %40 = getelementptr inbounds i8, ptr %39, i64 16
  tail call void @_ZN5MutexC2ENS_4RankEPKcb(ptr noundef nonnull align 8 dereferenceable(104) %40, i32 noundef 0, ptr noundef nonnull @.str.11, i1 noundef zeroext true) #13
  %41 = getelementptr inbounds i8, ptr %39, i64 120
  store ptr @.str.11, ptr %41, align 8
  %42 = getelementptr inbounds i8, ptr %39, i64 128
  store ptr @.str.12, ptr %42, align 8
  %43 = getelementptr inbounds i8, ptr %39, i64 136
  store i32 %37, ptr %43, align 8
  %44 = getelementptr inbounds i8, ptr %39, i64 140
  store i32 0, ptr %44, align 4
  %45 = getelementptr inbounds i8, ptr %39, i64 144
  store i32 0, ptr %45, align 8
  %46 = sext i32 %37 to i64
  %47 = tail call { i64, i1 } @llvm.umul.with.overflow.i64(i64 %46, i64 280)
  %48 = extractvalue { i64, i1 } %47, 1
  %49 = extractvalue { i64, i1 } %47, 0
  %50 = select i1 %48, i64 -1, i64 %49
  %51 = tail call noundef ptr @_Z12AllocateHeapm8MEMFLAGSN17AllocFailStrategy13AllocFailEnumE(i64 noundef %50, i8 noundef zeroext 9, i32 noundef 0) #13
  %52 = icmp eq i32 %.01820, 0
  br i1 %52, label %_ZN20FormatStringEventLogILm256EEC2EPKcS2_i.exit19, label %53

53:                                               ; preds = %38
  %54 = getelementptr inbounds %"class.EventLogBase<FormatStringLogMessage<256>>::EventRecord", ptr %51, i64 %46
  br label %55

55:                                               ; preds = %55, %53
  %56 = phi ptr [ %51, %53 ], [ %59, %55 ]
  %57 = getelementptr inbounds i8, ptr %56, i64 16
  %58 = getelementptr inbounds i8, ptr %56, i64 24
  store ptr %58, ptr %57, align 8
  store i8 0, ptr %58, align 1
  %59 = getelementptr inbounds i8, ptr %56, i64 280
  %60 = icmp eq ptr %59, %54
  br i1 %60, label %_ZN20FormatStringEventLogILm256EEC2EPKcS2_i.exit19, label %55

_ZN20FormatStringEventLogILm256EEC2EPKcS2_i.exit19: ; preds = %55, %38
  %61 = getelementptr inbounds i8, ptr %39, i64 152
  store ptr %51, ptr %61, align 8
  store ptr getelementptr inbounds inrange(-16, 24) (i8, ptr @_ZTV20FormatStringEventLogILm256EE, i64 16), ptr %39, align 8
  store ptr %39, ptr @_ZN5JVMCI15_verbose_eventsE, align 8
  br label %62

62:                                               ; preds = %_ZN20FormatStringEventLogILm256EEC2EPKcS2_i.exit19, %_ZN20FormatStringEventLogILm256EEC2EPKcS2_i.exit, %0
  %63 = tail call noundef ptr @_Z12AllocateHeapm8MEMFLAGSN17AllocFailStrategy13AllocFailEnumE(i64 noundef 96, i8 noundef zeroext 8, i32 noundef 0) #13
  tail call void @_ZN12JVMCIRuntimeC1EPS_ib(ptr noundef nonnull align 8 dereferenceable(93) %63, ptr noundef null, i32 noundef -1, i1 noundef zeroext false) #13
  store ptr %63, ptr @_ZN5JVMCI13_java_runtimeE, align 8
  %64 = load i32, ptr @JVMCIThreadsPerNativeLibraryRuntime, align 4
  %65 = icmp eq i32 %64, 0
  br i1 %65, label %66, label %68

66:                                               ; preds = %62
  %67 = tail call noundef ptr @_Z12AllocateHeapm8MEMFLAGSN17AllocFailStrategy13AllocFailEnumE(i64 noundef 96, i8 noundef zeroext 8, i32 noundef 0) #13
  tail call void @_ZN12JVMCIRuntimeC1EPS_ib(ptr noundef nonnull align 8 dereferenceable(93) %67, ptr noundef null, i32 noundef 0, i1 noundef zeroext true) #13
  store ptr %67, ptr @_ZN5JVMCI18_compiler_runtimesE, align 8
  br label %68

68:                                               ; preds = %66, %62
  ret void
}